; Function Attrs: mustprogress nofree norecurse nosync nounwind willreturn memory(read, inaccessiblemem: none) uwtable
define noundef float @_ZNK10OpenSubdiv6v3_6_03Far10PatchTable34GetSingleCreasePatchSharpnessValueEii(ptr nocapture noundef nonnull readonly align 8 dereferenceable(273) %0, i32 noundef %1, i32 noundef %2) local_unnamed_addr #6 align 2 {
  %4 = getelementptr inbounds nuw i8, ptr %0, i64 8
  %5 = sext i32 %1 to i64
  %6 = load ptr, ptr %4, align 8
  %7 = getelementptr inbounds nuw i8, ptr %0, i64 224
  %8 = getelementptr inbounds %"struct.OpenSubdiv::v3_6_0::Far::PatchTable::PatchArray", ptr %6, i64 %5, i32 3
  %9 = load i32, ptr %8, align 4
  %10 = add nsw i32 %9, %2
  %11 = sext i32 %10 to i64
  %12 = load ptr, ptr %7, align 8
  %13 = getelementptr inbounds i32, ptr %12, i64 %11
  %14 = load i32, ptr %13, align 4
  %15 = icmp eq i32 %14, -1
  br i1 %15, label %22, label %16

16:                                               ; preds = %3
  %17 = getelementptr inbounds nuw i8, ptr %0, i64 248
  %18 = sext i32 %14 to i64
  %19 = load ptr, ptr %17, align 8
  %20 = getelementptr inbounds float, ptr %19, i64 %18
  %21 = load float, ptr %20, align 4
  br label %22

22:                                               ; preds = %3, %16
  %.0 = phi float [ %21, %16 ], [ 0.000000e+00, %3 ]
  ret float %.0
}